; Function Attrs: mustprogress uwtable
define dso_local void @_ZNK5vcpkg15FullPackageSpec16expand_fspecs_toERSt6vectorINS_11FeatureSpecESaIS2_EE(ptr noundef nonnull align 8 dereferenceable(64) %0, ptr noundef nonnull align 8 dereferenceable(24) %1) local_unnamed_addr #0 align 2 {
  %3 = getelementptr inbounds i8, ptr %0, i64 40
  %4 = load ptr, ptr %3, align 8
  %5 = getelementptr inbounds i8, ptr %0, i64 48
  %6 = load ptr, ptr %5, align 8
  %.not8 = icmp eq ptr %4, %6
  br i1 %.not8, label %._crit_edge, label %.lr.ph

.lr.ph:                                           ; preds = %2
  %7 = getelementptr inbounds i8, ptr %1, i64 8
  %8 = getelementptr inbounds i8, ptr %1, i64 16
  br label %9

9:                                                ; preds = %.lr.ph, %_ZNSt6vectorIN5vcpkg11FeatureSpecESaIS1_EE12emplace_backIJRKNS0_11PackageSpecERKNSt7__cxx1112basic_stringIcSt11char_traitsIcESaIcEEEEEERS1_DpOT_.exit
  %.sroa.05.09 = phi ptr [ %4, %.lr.ph ], [ %16, %_ZNSt6vectorIN5vcpkg11FeatureSpecESaIS1_EE12emplace_backIJRKNS0_11PackageSpecERKNSt7__cxx1112basic_stringIcSt11char_traitsIcESaIcEEEEEERS1_DpOT_.exit ]
  %10 = load ptr, ptr %7, align 8
  %11 = load ptr, ptr %8, align 8
  %.not.i = icmp eq ptr %10, %11
  br i1 %.not.i, label %15, label %12

12:                                               ; preds = %9
  tail call void @_ZNSt15__new_allocatorIN5vcpkg11FeatureSpecEE9constructIS1_JRKNS0_11PackageSpecERKNSt7__cxx1112basic_stringIcSt11char_traitsIcESaIcEEEEEEvPT_DpOT0_(ptr noundef nonnull align 1 dereferenceable(1) %1, ptr noundef %10, ptr noundef nonnull align 8 dereferenceable(40) %0, ptr noundef nonnull align 8 dereferenceable(32) %.sroa.05.09)
  %13 = load ptr, ptr %7, align 8
  %14 = getelementptr inbounds i8, ptr %13, i64 72
  store ptr %14, ptr %7, align 8
  br label %_ZNSt6vectorIN5vcpkg11FeatureSpecESaIS1_EE12emplace_backIJRKNS0_11PackageSpecERKNSt7__cxx1112basic_stringIcSt11char_traitsIcESaIcEEEEEERS1_DpOT_.exit

15:                                               ; preds = %9
  tail call void @_ZNSt6vectorIN5vcpkg11FeatureSpecESaIS1_EE17_M_realloc_insertIJRKNS0_11PackageSpecERKNSt7__cxx1112basic_stringIcSt11char_traitsIcESaIcEEEEEEvN9__gnu_cxx17__normal_iteratorIPS1_S3_EEDpOT_(ptr noundef nonnull align 8 dereferenceable(24) %1, ptr %10, ptr noundef nonnull align 8 dereferenceable(40) %0, ptr noundef nonnull align 8 dereferenceable(32) %.sroa.05.09)
  br label %_ZNSt6vectorIN5vcpkg11FeatureSpecESaIS1_EE12emplace_backIJRKNS0_11PackageSpecERKNSt7__cxx1112basic_stringIcSt11char_traitsIcESaIcEEEEEERS1_DpOT_.exit

_ZNSt6vectorIN5vcpkg11FeatureSpecESaIS1_EE12emplace_backIJRKNS0_11PackageSpecERKNSt7__cxx1112basic_stringIcSt11char_traitsIcESaIcEEEEEERS1_DpOT_.exit: ; preds = %12, %15
  %16 = getelementptr inbounds i8, ptr %.sroa.05.09, i64 32
  %.not = icmp eq ptr %16, %6
  br i1 %.not, label %._crit_edge, label %9

._crit_edge:                                      ; preds = %_ZNSt6vectorIN5vcpkg11FeatureSpecESaIS1_EE12emplace_backIJRKNS0_11PackageSpecERKNSt7__cxx1112basic_stringIcSt11char_traitsIcESaIcEEEEEERS1_DpOT_.exit, %2
  ret void
}